target datalayout = "e-m:e-p270:32:32-p271:32:32-p272:64:64-i64:64-i128:128-f80:128-n8:16:32:64-S128"
target triple = "x86_64-pc-linux-gnu"

%struct.OnigEncodingTypeST = type { ptr, ptr, i32, i32, ptr, ptr, ptr, ptr, ptr, ptr, ptr, ptr, ptr, ptr, ptr, ptr, ptr, ptr, ptr, i32, i32, i32 }

; Function Attrs: nounwind uwtable
define internal i32 @string_cmp_ic(ptr noundef %0, i32 noundef %1, ptr noundef %2, ptr noundef %3, i32 noundef %4) #0 {
  %6 = alloca i32, align 4
  %7 = alloca ptr, align 8
  %8 = alloca i32, align 4
  %9 = alloca ptr, align 8
  %10 = alloca ptr, align 8
  %11 = alloca i32, align 4
  %12 = alloca [18 x i8], align 16
  %13 = alloca [18 x i8], align 16
  %14 = alloca ptr, align 8
  %15 = alloca ptr, align 8
  %16 = alloca ptr, align 8
  %17 = alloca ptr, align 8
  %18 = alloca ptr, align 8
  %19 = alloca i32, align 4
  %20 = alloca i32, align 4
  %21 = alloca i32, align 4
  store ptr %0, ptr %7, align 8, !tbaa !71
  store i32 %1, ptr %8, align 4, !tbaa !9
  store ptr %2, ptr %9, align 8, !tbaa !60
  store ptr %3, ptr %10, align 8, !tbaa !225
  store i32 %4, ptr %11, align 4, !tbaa !9
  call void @llvm.lifetime.start.p0(i64 18, ptr %12) #9
  call void @llvm.lifetime.start.p0(i64 18, ptr %13) #9
  call void @llvm.lifetime.start.p0(i64 8, ptr %14) #9
  call void @llvm.lifetime.start.p0(i64 8, ptr %15) #9
  call void @llvm.lifetime.start.p0(i64 8, ptr %16) #9
  call void @llvm.lifetime.start.p0(i64 8, ptr %17) #9
  call void @llvm.lifetime.start.p0(i64 8, ptr %18) #9
  call void @llvm.lifetime.start.p0(i64 4, ptr %19) #9
  call void @llvm.lifetime.start.p0(i64 4, ptr %20) #9
  %22 = load ptr, ptr %10, align 8, !tbaa !225
  %23 = load ptr, ptr %22, align 8, !tbaa !60
  store ptr %23, ptr %17, align 8, !tbaa !60
  %24 = load ptr, ptr %9, align 8, !tbaa !60
  %25 = load i32, ptr %11, align 4, !tbaa !9
  %26 = sext i32 %25 to i64
  %27 = getelementptr inbounds i8, ptr %24, i64 %26
  store ptr %27, ptr %16, align 8, !tbaa !60
  %28 = load ptr, ptr %17, align 8, !tbaa !60
  %29 = load i32, ptr %11, align 4, !tbaa !9
  %30 = sext i32 %29 to i64
  %31 = getelementptr inbounds i8, ptr %28, i64 %30
  store ptr %31, ptr %18, align 8, !tbaa !60
  br label %32

32:                                               ; preds = %86, %5
  %33 = load ptr, ptr %9, align 8, !tbaa !60
  %34 = load ptr, ptr %16, align 8, !tbaa !60
  %35 = icmp ult ptr %33, %34
  br i1 %35, label %36, label %87

36:                                               ; preds = %32
  %37 = load ptr, ptr %7, align 8, !tbaa !71
  %38 = getelementptr inbounds nuw %struct.OnigEncodingTypeST, ptr %37, i32 0, i32 8
  %39 = load ptr, ptr %38, align 8, !tbaa !227
  %40 = load i32, ptr %8, align 4, !tbaa !9
  %41 = load ptr, ptr %16, align 8, !tbaa !60
  %42 = getelementptr inbounds [18 x i8], ptr %12, i64 0, i64 0
  %43 = call i32 %39(i32 noundef %40, ptr noundef %9, ptr noundef %41, ptr noundef %42)
  store i32 %43, ptr %19, align 4, !tbaa !9
  %44 = load ptr, ptr %7, align 8, !tbaa !71
  %45 = getelementptr inbounds nuw %struct.OnigEncodingTypeST, ptr %44, i32 0, i32 8
  %46 = load ptr, ptr %45, align 8, !tbaa !227
  %47 = load i32, ptr %8, align 4, !tbaa !9
  %48 = load ptr, ptr %18, align 8, !tbaa !60
  %49 = getelementptr inbounds [18 x i8], ptr %13, i64 0, i64 0
  %50 = call i32 %46(i32 noundef %47, ptr noundef %17, ptr noundef %48, ptr noundef %49)
  store i32 %50, ptr %20, align 4, !tbaa !9
  %51 = load i32, ptr %19, align 4, !tbaa !9
  %52 = load i32, ptr %20, align 4, !tbaa !9
  %53 = icmp ne i32 %51, %52
  br i1 %53, label %54, label %55

54:                                               ; preds = %36
  store i32 0, ptr %6, align 4
  store i32 1, ptr %21, align 4
  br label %90

55:                                               ; preds = %36
  %56 = getelementptr inbounds [18 x i8], ptr %12, i64 0, i64 0
  store ptr %56, ptr %14, align 8, !tbaa !60
  %57 = getelementptr inbounds [18 x i8], ptr %13, i64 0, i64 0
  store ptr %57, ptr %15, align 8, !tbaa !60
  br label %58

58:                                               ; preds = %71, %55
  %59 = load i32, ptr %19, align 4, !tbaa !9
  %60 = add nsw i32 %59, -1
  store i32 %60, ptr %19, align 4, !tbaa !9
  %61 = icmp sgt i32 %59, 0
  br i1 %61, label %62, label %76

62:                                               ; preds = %58
  %63 = load ptr, ptr %14, align 8, !tbaa !60
  %64 = load i8, ptr %63, align 1, !tbaa !59
  %65 = zext i8 %64 to i32
  %66 = load ptr, ptr %15, align 8, !tbaa !60
  %67 = load i8, ptr %66, align 1, !tbaa !59
  %68 = zext i8 %67 to i32
  %69 = icmp ne i32 %65, %68
  br i1 %69, label %70, label %71

70:                                               ; preds = %62
  store i32 0, ptr %6, align 4
  store i32 1, ptr %21, align 4
  br label %90

71:                                               ; preds = %62
  %72 = load ptr, ptr %14, align 8, !tbaa !60
  %73 = getelementptr inbounds nuw i8, ptr %72, i32 1
  store ptr %73, ptr %14, align 8, !tbaa !60
  %74 = load ptr, ptr %15, align 8, !tbaa !60
  %75 = getelementptr inbounds nuw i8, ptr %74, i32 1
  store ptr %75, ptr %15, align 8, !tbaa !60
  br label %58, !llvm.loop !228

76:                                               ; preds = %58
  %77 = load ptr, ptr %17, align 8, !tbaa !60
  %78 = load ptr, ptr %18, align 8, !tbaa !60
  %79 = icmp uge ptr %77, %78
  br i1 %79, label %80, label %86

80:                                               ; preds = %76
  %81 = load ptr, ptr %9, align 8, !tbaa !60
  %82 = load ptr, ptr %16, align 8, !tbaa !60
  %83 = icmp ult ptr %81, %82
  br i1 %83, label %84, label %85

84:                                               ; preds = %80
  store i32 0, ptr %6, align 4
  store i32 1, ptr %21, align 4
  br label %90

85:                                               ; preds = %80
  br label %87

86:                                               ; preds = %76
  br label %32, !llvm.loop !229

87:                                               ; preds = %85, %32
  %88 = load ptr, ptr %17, align 8, !tbaa !60
  %89 = load ptr, ptr %10, align 8, !tbaa !225
  store ptr %88, ptr %89, align 8, !tbaa !60
  store i32 1, ptr %6, align 4
  store i32 1, ptr %21, align 4
  br label %90

90:                                               ; preds = %87, %84, %70, %54
  call void @llvm.lifetime.end.p0(i64 4, ptr %20) #9
  call void @llvm.lifetime.end.p0(i64 4, ptr %19) #9
  call void @llvm.lifetime.end.p0(i64 8, ptr %18) #9
  call void @llvm.lifetime.end.p0(i64 8, ptr %17) #9
  call void @llvm.lifetime.end.p0(i64 8, ptr %16) #9
  call void @llvm.lifetime.end.p0(i64 8, ptr %15) #9
  call void @llvm.lifetime.end.p0(i64 8, ptr %14) #9
  call void @llvm.lifetime.end.p0(i64 18, ptr %13) #9
  call void @llvm.lifetime.end.p0(i64 18, ptr %12) #9
  %91 = load i32, ptr %6, align 4
  ret i32 %91
}